; Function Attrs: mustprogress uwtable
define hidden noundef nonnull align 8 dereferenceable(8) ptr @_ZNK24fixed_bit_vector_manager7displayERSoRK16fixed_bit_vector(ptr noundef nonnull readonly align 8 captures(none) dereferenceable(540) %0, ptr noundef nonnull returned align 8 dereferenceable(8) %1, ptr noundef nonnull readonly align 4 captures(none) dereferenceable(4) %2) local_unnamed_addr #4 align 2 {
  %4 = getelementptr inbounds nuw i8, ptr %0, i64 520
  %5 = load i32, ptr %4, align 8, !tbaa !11
  %.not8 = icmp eq i32 %5, 0
  br i1 %.not8, label %._crit_edge, label %.lr.ph

.lr.ph:                                           ; preds = %3, %.lr.ph
  %.09 = phi i32 [ %6, %.lr.ph ], [ %5, %3 ]
  %6 = add i32 %.09, -1
  %7 = lshr i32 %6, 5
  %8 = zext nneg i32 %7 to i64
  %9 = getelementptr inbounds nuw [1 x i32], ptr %2, i64 0, i64 %8
  %10 = load i32, ptr %9, align 4, !tbaa !3
  %11 = and i32 %6, 31
  %12 = shl nuw i32 1, %11
  %13 = and i32 %10, %12
  %.not7 = icmp eq i32 %13, 0
  %.str.2..str.1 = select i1 %.not7, ptr @.str.2, ptr @.str.1
  %14 = tail call noundef nonnull align 8 dereferenceable(8) ptr @_ZSt16__ostream_insertIcSt11char_traitsIcEERSt13basic_ostreamIT_T0_ES6_PKS3_l(ptr noundef nonnull align 8 dereferenceable(8) %1, ptr noundef nonnull %.str.2..str.1, i64 noundef 1)
  %.not = icmp eq i32 %6, 0
  br i1 %.not, label %._crit_edge, label %.lr.ph, !llvm.loop !24

._crit_edge:                                      ; preds = %.lr.ph, %3
  ret ptr %1
}